target datalayout = "e-m:e-p270:32:32-p271:32:32-p272:64:64-i64:64-i128:128-f80:128-n8:16:32:64-S128"
target triple = "x86_64-pc-linux-gnu"

@lossless = internal global i32 0, align 4
@precision = internal global i32 8, align 4
@quiet = internal global i32 0, align 4
@.str.279 = private unnamed_addr constant [17 x i8] c"%-2d/LOSSLESS   \00", align 1
@.str.280 = private unnamed_addr constant [16 x i8] c"%-2d/%-5s      \00", align 1
@csName = internal global [5 x ptr] [ptr @.str.284, ptr @.str.285, ptr @.str.286, ptr @.str.287, ptr @.str.288], align 16
@.str.281 = private unnamed_addr constant [15 x i8] c"%-2d/%-5s/%-5s\00", align 1
@subNameLong = internal global [7 x ptr] [ptr @.str.289, ptr @.str.290, ptr @.str.291, ptr @.str.286, ptr @.str.292, ptr @.str.293, ptr @.str.294], align 16
@.str.282 = private unnamed_addr constant [9 x i8] c"Lossless\00", align 1
@.str.283 = private unnamed_addr constant [6 x i8] c"%s %s\00", align 1

; Function Attrs: nounwind uwtable
define internal ptr @formatName(i32 noundef %0, i32 noundef %1, ptr noundef %2) #0 {
  %4 = alloca ptr, align 8
  %5 = alloca i32, align 4
  %6 = alloca i32, align 4
  %7 = alloca ptr, align 8
  store i32 %0, ptr %5, align 4, !tbaa !4
  store i32 %1, ptr %6, align 4, !tbaa !4
  store ptr %2, ptr %7, align 8, !tbaa !12
  %8 = load i32, ptr @quiet, align 4, !tbaa !4
  %9 = icmp eq i32 %8, 1
  br i1 %9, label %10, label %43

10:                                               ; preds = %3
  %11 = load i32, ptr @lossless, align 4, !tbaa !4
  %12 = icmp ne i32 %11, 0
  br i1 %12, label %13, label %17

13:                                               ; preds = %10
  %14 = load ptr, ptr %7, align 8, !tbaa !12
  %15 = load i32, ptr @precision, align 4, !tbaa !4
  %16 = call i32 (ptr, i64, ptr, ...) @snprintf(ptr noundef %14, i64 noundef 80, ptr noundef @.str.279, i32 noundef %15) #12
  br label %41

17:                                               ; preds = %10
  %18 = load i32, ptr %5, align 4, !tbaa !4
  %19 = icmp eq i32 %18, -1
  br i1 %19, label %20, label %28

20:                                               ; preds = %17
  %21 = load ptr, ptr %7, align 8, !tbaa !12
  %22 = load i32, ptr @precision, align 4, !tbaa !4
  %23 = load i32, ptr %6, align 4, !tbaa !4
  %24 = sext i32 %23 to i64
  %25 = getelementptr inbounds [5 x ptr], ptr @csName, i64 0, i64 %24
  %26 = load ptr, ptr %25, align 8, !tbaa !12
  %27 = call i32 (ptr, i64, ptr, ...) @snprintf(ptr noundef %21, i64 noundef 80, ptr noundef @.str.280, i32 noundef %22, ptr noundef %26) #12
  br label %40

28:                                               ; preds = %17
  %29 = load ptr, ptr %7, align 8, !tbaa !12
  %30 = load i32, ptr @precision, align 4, !tbaa !4
  %31 = load i32, ptr %6, align 4, !tbaa !4
  %32 = sext i32 %31 to i64
  %33 = getelementptr inbounds [5 x ptr], ptr @csName, i64 0, i64 %32
  %34 = load ptr, ptr %33, align 8, !tbaa !12
  %35 = load i32, ptr %5, align 4, !tbaa !4
  %36 = sext i32 %35 to i64
  %37 = getelementptr inbounds [7 x ptr], ptr @subNameLong, i64 0, i64 %36
  %38 = load ptr, ptr %37, align 8, !tbaa !12
  %39 = call i32 (ptr, i64, ptr, ...) @snprintf(ptr noundef %29, i64 noundef 80, ptr noundef @.str.281, i32 noundef %30, ptr noundef %34, ptr noundef %38) #12
  br label %40

40:                                               ; preds = %28, %20
  br label %41

41:                                               ; preds = %40, %13
  %42 = load ptr, ptr %7, align 8, !tbaa !12
  store ptr %42, ptr %4, align 8
  br label %67

43:                                               ; preds = %3
  %44 = load i32, ptr @lossless, align 4, !tbaa !4
  %45 = icmp ne i32 %44, 0
  br i1 %45, label %46, label %47

46:                                               ; preds = %43
  store ptr @.str.282, ptr %4, align 8
  br label %67

47:                                               ; preds = %43
  %48 = load i32, ptr %5, align 4, !tbaa !4
  %49 = icmp eq i32 %48, -1
  br i1 %49, label %50, label %55

50:                                               ; preds = %47
  %51 = load i32, ptr %6, align 4, !tbaa !4
  %52 = sext i32 %51 to i64
  %53 = getelementptr inbounds [5 x ptr], ptr @csName, i64 0, i64 %52
  %54 = load ptr, ptr %53, align 8, !tbaa !12
  store ptr %54, ptr %4, align 8
  br label %67

55:                                               ; preds = %47
  %56 = load ptr, ptr %7, align 8, !tbaa !12
  %57 = load i32, ptr %6, align 4, !tbaa !4
  %58 = sext i32 %57 to i64
  %59 = getelementptr inbounds [5 x ptr], ptr @csName, i64 0, i64 %58
  %60 = load ptr, ptr %59, align 8, !tbaa !12
  %61 = load i32, ptr %5, align 4, !tbaa !4
  %62 = sext i32 %61 to i64
  %63 = getelementptr inbounds [7 x ptr], ptr @subNameLong, i64 0, i64 %62
  %64 = load ptr, ptr %63, align 8, !tbaa !12
  %65 = call i32 (ptr, i64, ptr, ...) @snprintf(ptr noundef %56, i64 noundef 80, ptr noundef @.str.283, ptr noundef %60, ptr noundef %64) #12
  %66 = load ptr, ptr %7, align 8, !tbaa !12
  store ptr %66, ptr %4, align 8
  br label %67

67:                                               ; preds = %55, %50, %46, %41
  %68 = load ptr, ptr %4, align 8
  ret ptr %68
}