; Function Attrs: nofree nounwind uwtable
define internal fastcc ptr @formatName(i32 noundef %0, i32 noundef %1, ptr noundef nonnull writeonly captures(ret: address, provenance) %2) unnamed_addr #15 {
  %4 = load i32, ptr @quiet, align 4, !tbaa !4
  %5 = icmp eq i32 %4, 1
  %6 = load i32, ptr @lossless, align 4, !tbaa !4
  %.not15 = icmp eq i32 %6, 0
  br i1 %5, label %7, label %24

7:                                                ; preds = %3
  br i1 %.not15, label %11, label %8

8:                                                ; preds = %7
  %9 = load i32, ptr @precision, align 4, !tbaa !4
  %10 = tail call i32 (ptr, i64, ptr, ...) @snprintf(ptr noundef nonnull dereferenceable(1) %2, i64 noundef 80, ptr noundef nonnull @.str.279, i32 noundef %9) #23
  br label %35

11:                                               ; preds = %7
  %12 = icmp eq i32 %0, -1
  %13 = load i32, ptr @precision, align 4, !tbaa !4
  %14 = sext i32 %1 to i64
  %15 = getelementptr inbounds [5 x ptr], ptr @csName, i64 0, i64 %14
  %16 = load ptr, ptr %15, align 8, !tbaa !10
  br i1 %12, label %17, label %19

17:                                               ; preds = %11
  %18 = tail call i32 (ptr, i64, ptr, ...) @snprintf(ptr noundef nonnull dereferenceable(1) %2, i64 noundef 80, ptr noundef nonnull @.str.280, i32 noundef %13, ptr noundef %16) #23
  br label %35

19:                                               ; preds = %11
  %20 = sext i32 %0 to i64
  %21 = getelementptr inbounds [7 x ptr], ptr @subNameLong, i64 0, i64 %20
  %22 = load ptr, ptr %21, align 8, !tbaa !10
  %23 = tail call i32 (ptr, i64, ptr, ...) @snprintf(ptr noundef nonnull dereferenceable(1) %2, i64 noundef 80, ptr noundef nonnull @.str.281, i32 noundef %13, ptr noundef %16, ptr noundef %22) #23
  br label %35

24:                                               ; preds = %3
  br i1 %.not15, label %25, label %35

25:                                               ; preds = %24
  %26 = icmp eq i32 %0, -1
  %27 = sext i32 %1 to i64
  %28 = getelementptr inbounds [5 x ptr], ptr @csName, i64 0, i64 %27
  %29 = load ptr, ptr %28, align 8, !tbaa !10
  br i1 %26, label %35, label %30

30:                                               ; preds = %25
  %31 = sext i32 %0 to i64
  %32 = getelementptr inbounds [7 x ptr], ptr @subNameLong, i64 0, i64 %31
  %33 = load ptr, ptr %32, align 8, !tbaa !10
  %34 = tail call i32 (ptr, i64, ptr, ...) @snprintf(ptr noundef nonnull dereferenceable(1) %2, i64 noundef 80, ptr noundef nonnull @.str.283, ptr noundef %29, ptr noundef %33) #23
  br label %35

35:                                               ; preds = %25, %24, %8, %19, %17, %30
  %.0 = phi ptr [ %2, %30 ], [ %2, %17 ], [ %2, %19 ], [ %2, %8 ], [ @.str.282, %24 ], [ %29, %25 ]
  ret ptr %.0
}